target datalayout = "e-m:e-p270:32:32-p271:32:32-p272:64:64-i64:64-i128:128-f80:128-n8:16:32:64-S128"
target triple = "x86_64-pc-linux-gnu"

%struct.Aggref = type { %struct.Expr, i32, i32, i32, i32, i32, ptr, ptr, ptr, ptr, ptr, ptr, i8, i8, i8, i8, i32, i32, i32, i32, i32 }
%struct.Expr = type { i32 }
%struct.Node = type { i32 }
%struct.GroupingFunc = type { %struct.Expr, ptr, ptr, ptr, i32, i32 }
%struct.WindowFunc = type { %struct.Expr, i32, i32, i32, i32, ptr, ptr, ptr, i32, i8, i8, i32 }
%struct.FuncExpr = type { %struct.Expr, i32, i32, i8, i8, i32, i32, i32, ptr, i32 }
%struct.check_agg_arguments_context = type { ptr, i32, i32, i32 }
%struct.Var = type { %struct.Expr, i32, i16, i32, i32, i32, ptr, i32, i32, i32, i16, i32 }
%struct.OpExpr = type { %struct.Expr, i32, i32, i32, i8, i32, i32, ptr, i32 }

@.str.2 = private unnamed_addr constant [12 x i8] c"parse_agg.c\00", align 1
@.str.75 = private unnamed_addr constant [69 x i8] c"aggregate function calls cannot contain set-returning function calls\00", align 1
@.str.76 = private unnamed_addr constant [79 x i8] c"You might be able to move the set-returning function into a LATERAL FROM item.\00", align 1
@__func__.check_agg_arguments_walker = private unnamed_addr constant [27 x i8] c"check_agg_arguments_walker\00", align 1
@.str.77 = private unnamed_addr constant [62 x i8] c"aggregate function calls cannot contain window function calls\00", align 1

; Function Attrs: nounwind uwtable
define internal zeroext i1 @check_agg_arguments_walker(ptr noundef %0, ptr noundef %1) #0 {
  %3 = alloca i1, align 1
  %4 = alloca ptr, align 8
  %5 = alloca ptr, align 8
  %6 = alloca i32, align 4
  %7 = alloca i32, align 4
  %8 = alloca i32, align 4
  %9 = alloca i8, align 1
  store ptr %0, ptr %4, align 8
  store ptr %1, ptr %5, align 8
  %10 = load ptr, ptr %4, align 8
  %11 = icmp eq ptr %10, null
  br i1 %11, label %12, label %13

12:                                               ; preds = %2
  store i1 false, ptr %3, align 1
  br label %203

13:                                               ; preds = %2
  %14 = load ptr, ptr %4, align 8
  %15 = getelementptr inbounds nuw %struct.Node, ptr %14, i32 0, i32 0
  %16 = load i32, ptr %15, align 4
  %17 = icmp eq i32 %16, 6
  br i1 %17, label %18, label %46

18:                                               ; preds = %13
  call void @llvm.lifetime.start.p0(i64 4, ptr %6) #7
  %19 = load ptr, ptr %4, align 8
  %20 = getelementptr inbounds nuw %struct.Var, ptr %19, i32 0, i32 7
  %21 = load i32, ptr %20, align 8
  store i32 %21, ptr %6, align 4
  %22 = load ptr, ptr %5, align 8
  %23 = getelementptr inbounds nuw %struct.check_agg_arguments_context, ptr %22, i32 0, i32 3
  %24 = load i32, ptr %23, align 8
  %25 = load i32, ptr %6, align 4
  %26 = sub i32 %25, %24
  store i32 %26, ptr %6, align 4
  %27 = load i32, ptr %6, align 4
  %28 = icmp sge i32 %27, 0
  br i1 %28, label %29, label %45

29:                                               ; preds = %18
  %30 = load ptr, ptr %5, align 8
  %31 = getelementptr inbounds nuw %struct.check_agg_arguments_context, ptr %30, i32 0, i32 1
  %32 = load i32, ptr %31, align 8
  %33 = icmp slt i32 %32, 0
  br i1 %33, label %40, label %34

34:                                               ; preds = %29
  %35 = load ptr, ptr %5, align 8
  %36 = getelementptr inbounds nuw %struct.check_agg_arguments_context, ptr %35, i32 0, i32 1
  %37 = load i32, ptr %36, align 8
  %38 = load i32, ptr %6, align 4
  %39 = icmp sgt i32 %37, %38
  br i1 %39, label %40, label %44

40:                                               ; preds = %34, %29
  %41 = load i32, ptr %6, align 4
  %42 = load ptr, ptr %5, align 8
  %43 = getelementptr inbounds nuw %struct.check_agg_arguments_context, ptr %42, i32 0, i32 1
  store i32 %41, ptr %43, align 8
  br label %44

44:                                               ; preds = %40, %34
  br label %45

45:                                               ; preds = %44, %18
  store i1 false, ptr %3, align 1
  call void @llvm.lifetime.end.p0(i64 4, ptr %6) #7
  br label %203

46:                                               ; preds = %13
  %47 = load ptr, ptr %4, align 8
  %48 = getelementptr inbounds nuw %struct.Node, ptr %47, i32 0, i32 0
  %49 = load i32, ptr %48, align 4
  %50 = icmp eq i32 %49, 9
  br i1 %50, label %51, label %79

51:                                               ; preds = %46
  call void @llvm.lifetime.start.p0(i64 4, ptr %7) #7
  %52 = load ptr, ptr %4, align 8
  %53 = getelementptr inbounds nuw %struct.Aggref, ptr %52, i32 0, i32 16
  %54 = load i32, ptr %53, align 4
  store i32 %54, ptr %7, align 4
  %55 = load ptr, ptr %5, align 8
  %56 = getelementptr inbounds nuw %struct.check_agg_arguments_context, ptr %55, i32 0, i32 3
  %57 = load i32, ptr %56, align 8
  %58 = load i32, ptr %7, align 4
  %59 = sub i32 %58, %57
  store i32 %59, ptr %7, align 4
  %60 = load i32, ptr %7, align 4
  %61 = icmp sge i32 %60, 0
  br i1 %61, label %62, label %78

62:                                               ; preds = %51
  %63 = load ptr, ptr %5, align 8
  %64 = getelementptr inbounds nuw %struct.check_agg_arguments_context, ptr %63, i32 0, i32 2
  %65 = load i32, ptr %64, align 4
  %66 = icmp slt i32 %65, 0
  br i1 %66, label %73, label %67

67:                                               ; preds = %62
  %68 = load ptr, ptr %5, align 8
  %69 = getelementptr inbounds nuw %struct.check_agg_arguments_context, ptr %68, i32 0, i32 2
  %70 = load i32, ptr %69, align 4
  %71 = load i32, ptr %7, align 4
  %72 = icmp sgt i32 %70, %71
  br i1 %72, label %73, label %77

73:                                               ; preds = %67, %62
  %74 = load i32, ptr %7, align 4
  %75 = load ptr, ptr %5, align 8
  %76 = getelementptr inbounds nuw %struct.check_agg_arguments_context, ptr %75, i32 0, i32 2
  store i32 %74, ptr %76, align 4
  br label %77

77:                                               ; preds = %73, %67
  br label %78

78:                                               ; preds = %77, %51
  call void @llvm.lifetime.end.p0(i64 4, ptr %7) #7
  br label %79

79:                                               ; preds = %78, %46
  %80 = load ptr, ptr %4, align 8
  %81 = getelementptr inbounds nuw %struct.Node, ptr %80, i32 0, i32 0
  %82 = load i32, ptr %81, align 4
  %83 = icmp eq i32 %82, 10
  br i1 %83, label %84, label %112

84:                                               ; preds = %79
  call void @llvm.lifetime.start.p0(i64 4, ptr %8) #7
  %85 = load ptr, ptr %4, align 8
  %86 = getelementptr inbounds nuw %struct.GroupingFunc, ptr %85, i32 0, i32 4
  %87 = load i32, ptr %86, align 8
  store i32 %87, ptr %8, align 4
  %88 = load ptr, ptr %5, align 8
  %89 = getelementptr inbounds nuw %struct.check_agg_arguments_context, ptr %88, i32 0, i32 3
  %90 = load i32, ptr %89, align 8
  %91 = load i32, ptr %8, align 4
  %92 = sub i32 %91, %90
  store i32 %92, ptr %8, align 4
  %93 = load i32, ptr %8, align 4
  %94 = icmp sge i32 %93, 0
  br i1 %94, label %95, label %111

95:                                               ; preds = %84
  %96 = load ptr, ptr %5, align 8
  %97 = getelementptr inbounds nuw %struct.check_agg_arguments_context, ptr %96, i32 0, i32 2
  %98 = load i32, ptr %97, align 4
  %99 = icmp slt i32 %98, 0
  br i1 %99, label %106, label %100

100:                                              ; preds = %95
  %101 = load ptr, ptr %5, align 8
  %102 = getelementptr inbounds nuw %struct.check_agg_arguments_context, ptr %101, i32 0, i32 2
  %103 = load i32, ptr %102, align 4
  %104 = load i32, ptr %8, align 4
  %105 = icmp sgt i32 %103, %104
  br i1 %105, label %106, label %110

106:                                              ; preds = %100, %95
  %107 = load i32, ptr %8, align 4
  %108 = load ptr, ptr %5, align 8
  %109 = getelementptr inbounds nuw %struct.check_agg_arguments_context, ptr %108, i32 0, i32 2
  store i32 %107, ptr %109, align 4
  br label %110

110:                                              ; preds = %106, %100
  br label %111

111:                                              ; preds = %110, %84
  call void @llvm.lifetime.end.p0(i64 4, ptr %8) #7
  br label %112

112:                                              ; preds = %111, %79
  %113 = load ptr, ptr %5, align 8
  %114 = getelementptr inbounds nuw %struct.check_agg_arguments_context, ptr %113, i32 0, i32 3
  %115 = load i32, ptr %114, align 8
  %116 = icmp eq i32 %115, 0
  br i1 %116, label %117, label %179

117:                                              ; preds = %112
  %118 = load ptr, ptr %4, align 8
  %119 = getelementptr inbounds nuw %struct.Node, ptr %118, i32 0, i32 0
  %120 = load i32, ptr %119, align 4
  %121 = icmp eq i32 %120, 15
  br i1 %121, label %122, label %127

122:                                              ; preds = %117
  %123 = load ptr, ptr %4, align 8
  %124 = getelementptr inbounds nuw %struct.FuncExpr, ptr %123, i32 0, i32 3
  %125 = load i8, ptr %124, align 4, !range !7, !noundef !8
  %126 = trunc i8 %125 to i1
  br i1 %126, label %137, label %127

127:                                              ; preds = %122, %117
  %128 = load ptr, ptr %4, align 8
  %129 = getelementptr inbounds nuw %struct.Node, ptr %128, i32 0, i32 0
  %130 = load i32, ptr %129, align 4
  %131 = icmp eq i32 %130, 17
  br i1 %131, label %132, label %155

132:                                              ; preds = %127
  %133 = load ptr, ptr %4, align 8
  %134 = getelementptr inbounds nuw %struct.OpExpr, ptr %133, i32 0, i32 4
  %135 = load i8, ptr %134, align 8, !range !7, !noundef !8
  %136 = trunc i8 %135 to i1
  br i1 %136, label %137, label %155

137:                                              ; preds = %132, %122
  br label %138

138:                                              ; preds = %137
  br i1 true, label %139, label %141

139:                                              ; preds = %138
  %140 = call zeroext i1 @errstart_cold(i32 noundef 21, ptr noundef null) #8
  br i1 %140, label %143, label %153

141:                                              ; preds = %138
  %142 = call zeroext i1 @errstart(i32 noundef 21, ptr noundef null)
  br i1 %142, label %143, label %153

143:                                              ; preds = %141, %139
  %144 = call i32 @errcode(i32 noundef 1088)
  %145 = call i32 (ptr, ...) @errmsg(ptr noundef @.str.75)
  %146 = call i32 (ptr, ...) @errhint(ptr noundef @.str.76)
  %147 = load ptr, ptr %5, align 8
  %148 = getelementptr inbounds nuw %struct.check_agg_arguments_context, ptr %147, i32 0, i32 0
  %149 = load ptr, ptr %148, align 8
  %150 = load ptr, ptr %4, align 8
  %151 = call i32 @exprLocation(ptr noundef %150)
  %152 = call i32 @parser_errposition(ptr noundef %149, i32 noundef %151)
  call void @errfinish(ptr noundef @.str.2, i32 noundef 786, ptr noundef @__func__.check_agg_arguments_walker)
  br label %153

153:                                              ; preds = %143, %141, %139
  unreachable

154:                                              ; No predecessors!
  br label %155

155:                                              ; preds = %154, %132, %127
  %156 = load ptr, ptr %4, align 8
  %157 = getelementptr inbounds nuw %struct.Node, ptr %156, i32 0, i32 0
  %158 = load i32, ptr %157, align 4
  %159 = icmp eq i32 %158, 11
  br i1 %159, label %160, label %178

160:                                              ; preds = %155
  br label %161

161:                                              ; preds = %160
  br i1 true, label %162, label %164

162:                                              ; preds = %161
  %163 = call zeroext i1 @errstart_cold(i32 noundef 21, ptr noundef null) #8
  br i1 %163, label %166, label %176

164:                                              ; preds = %161
  %165 = call zeroext i1 @errstart(i32 noundef 21, ptr noundef null)
  br i1 %165, label %166, label %176

166:                                              ; preds = %164, %162
  %167 = call i32 @errcode(i32 noundef 50364548)
  %168 = call i32 (ptr, ...) @errmsg(ptr noundef @.str.77)
  %169 = load ptr, ptr %5, align 8
  %170 = getelementptr inbounds nuw %struct.check_agg_arguments_context, ptr %169, i32 0, i32 0
  %171 = load ptr, ptr %170, align 8
  %172 = load ptr, ptr %4, align 8
  %173 = getelementptr inbounds nuw %struct.WindowFunc, ptr %172, i32 0, i32 11
  %174 = load i32, ptr %173, align 8
  %175 = call i32 @parser_errposition(ptr noundef %171, i32 noundef %174)
  call void @errfinish(ptr noundef @.str.2, i32 noundef 792, ptr noundef @__func__.check_agg_arguments_walker)
  br label %176

176:                                              ; preds = %166, %164, %162
  unreachable

177:                                              ; No predecessors!
  br label %178

178:                                              ; preds = %177, %155
  br label %179

179:                                              ; preds = %178, %112
  %180 = load ptr, ptr %4, align 8
  %181 = getelementptr inbounds nuw %struct.Node, ptr %180, i32 0, i32 0
  %182 = load i32, ptr %181, align 4
  %183 = icmp eq i32 %182, 67
  br i1 %183, label %184, label %199

184:                                              ; preds = %179
  call void @llvm.lifetime.start.p0(i64 1, ptr %9) #7
  %185 = load ptr, ptr %5, align 8
  %186 = getelementptr inbounds nuw %struct.check_agg_arguments_context, ptr %185, i32 0, i32 3
  %187 = load i32, ptr %186, align 8
  %188 = add i32 %187, 1
  store i32 %188, ptr %186, align 8
  %189 = load ptr, ptr %4, align 8
  %190 = load ptr, ptr %5, align 8
  %191 = call zeroext i1 @query_tree_walker_impl(ptr noundef %189, ptr noundef @check_agg_arguments_walker, ptr noundef %190, i32 noundef 0)
  %192 = zext i1 %191 to i8
  store i8 %192, ptr %9, align 1
  %193 = load ptr, ptr %5, align 8
  %194 = getelementptr inbounds nuw %struct.check_agg_arguments_context, ptr %193, i32 0, i32 3
  %195 = load i32, ptr %194, align 8
  %196 = add i32 %195, -1
  store i32 %196, ptr %194, align 8
  %197 = load i8, ptr %9, align 1, !range !7, !noundef !8
  %198 = trunc i8 %197 to i1
  store i1 %198, ptr %3, align 1
  call void @llvm.lifetime.end.p0(i64 1, ptr %9) #7
  br label %203

199:                                              ; preds = %179
  %200 = load ptr, ptr %4, align 8
  %201 = load ptr, ptr %5, align 8
  %202 = call zeroext i1 @expression_tree_walker_impl(ptr noundef %200, ptr noundef @check_agg_arguments_walker, ptr noundef %201)
  store i1 %202, ptr %3, align 1
  br label %203

203:                                              ; preds = %199, %184, %45, %12
  %204 = load i1, ptr %3, align 1
  ret i1 %204
}