; Function Attrs: nounwind uwtable
define internal zeroext i1 @check_agg_arguments_walker(ptr noundef %0, ptr noundef %1) #0 {
  %3 = icmp eq ptr %0, null
  br i1 %3, label %76, label %4

4:                                                ; preds = %2
  %5 = load i32, ptr %0, align 4
  switch i32 %5, label %thread-pre-split [
    i32 6, label %6
    i32 9, label %17
  ]

6:                                                ; preds = %4
  %7 = getelementptr inbounds nuw i8, ptr %0, i64 32
  %8 = load i32, ptr %7, align 8
  %9 = getelementptr inbounds nuw i8, ptr %1, i64 16
  %10 = load i32, ptr %9, align 8
  %11 = sub i32 %8, %10
  %12 = icmp sgt i32 %11, -1
  br i1 %12, label %13, label %76

13:                                               ; preds = %6
  %14 = getelementptr inbounds nuw i8, ptr %1, i64 8
  %15 = load i32, ptr %14, align 8
  %or.cond = icmp ugt i32 %15, %11
  br i1 %or.cond, label %16, label %76

16:                                               ; preds = %13
  store i32 %11, ptr %14, align 8
  br label %76

17:                                               ; preds = %4
  %18 = getelementptr inbounds nuw i8, ptr %0, i64 76
  %19 = load i32, ptr %18, align 4
  %20 = getelementptr inbounds nuw i8, ptr %1, i64 16
  %21 = load i32, ptr %20, align 8
  %22 = sub i32 %19, %21
  %23 = icmp sgt i32 %22, -1
  br i1 %23, label %24, label %._crit_edge

24:                                               ; preds = %17
  %25 = getelementptr inbounds nuw i8, ptr %1, i64 12
  %26 = load i32, ptr %25, align 4
  %or.cond57 = icmp ugt i32 %26, %22
  br i1 %or.cond57, label %27, label %._crit_edge

27:                                               ; preds = %24
  store i32 %22, ptr %25, align 4
  %.pr.pre = load i32, ptr %0, align 4
  br label %thread-pre-split

thread-pre-split:                                 ; preds = %27, %4
  %.pre6164 = phi i32 [ %5, %4 ], [ %.pr.pre, %27 ]
  %28 = icmp eq i32 %.pre6164, 10
  br i1 %28, label %29, label %._crit_edge

._crit_edge:                                      ; preds = %17, %24, %thread-pre-split
  %.pre616466 = phi i32 [ %.pre6164, %thread-pre-split ], [ 9, %24 ], [ 9, %17 ]
  %.phi.trans.insert = getelementptr inbounds nuw i8, ptr %1, i64 16
  %.pre = load i32, ptr %.phi.trans.insert, align 8
  br label %40

29:                                               ; preds = %thread-pre-split
  %30 = getelementptr inbounds nuw i8, ptr %0, i64 32
  %31 = load i32, ptr %30, align 8
  %32 = getelementptr inbounds nuw i8, ptr %1, i64 16
  %33 = load i32, ptr %32, align 8
  %34 = sub i32 %31, %33
  %35 = icmp sgt i32 %34, -1
  br i1 %35, label %36, label %40

36:                                               ; preds = %29
  %37 = getelementptr inbounds nuw i8, ptr %1, i64 12
  %38 = load i32, ptr %37, align 4
  %or.cond58 = icmp ugt i32 %38, %34
  br i1 %or.cond58, label %39, label %40

39:                                               ; preds = %36
  store i32 %34, ptr %37, align 4
  %.pre61.pre = load i32, ptr %0, align 4
  br label %40

40:                                               ; preds = %._crit_edge, %29, %39, %36
  %.pre61 = phi i32 [ %.pre616466, %._crit_edge ], [ 10, %29 ], [ %.pre61.pre, %39 ], [ 10, %36 ]
  %41 = phi i32 [ %.pre, %._crit_edge ], [ %33, %29 ], [ %33, %39 ], [ %33, %36 ]
  %42 = getelementptr inbounds nuw i8, ptr %1, i64 16
  %43 = icmp eq i32 %41, 0
  br i1 %43, label %44, label %.thread59

44:                                               ; preds = %40
  switch i32 %.pre61, label %.thread59.thread [
    i32 15, label %45
    i32 17, label %49
    i32 11, label %61
    i32 67, label %70
  ]

45:                                               ; preds = %44
  %46 = getelementptr inbounds nuw i8, ptr %0, i64 12
  %47 = load i8, ptr %46, align 4, !range !6, !noundef !7
  %48 = trunc nuw i8 %47 to i1
  br i1 %48, label %53, label %.thread59.thread

49:                                               ; preds = %44
  %50 = getelementptr inbounds nuw i8, ptr %0, i64 16
  %51 = load i8, ptr %50, align 8, !range !6, !noundef !7
  %52 = trunc nuw i8 %51 to i1
  br i1 %52, label %53, label %.thread59.thread

53:                                               ; preds = %49, %45
  %54 = tail call zeroext i1 @errstart_cold(i32 noundef 21, ptr noundef null) #12
  tail call void @llvm.assume(i1 %54)
  %55 = tail call i32 @errcode(i32 noundef 1088) #11
  %56 = tail call i32 (ptr, ...) @errmsg(ptr noundef nonnull @.str.75) #11
  %57 = tail call i32 (ptr, ...) @errhint(ptr noundef nonnull @.str.76) #11
  %58 = load ptr, ptr %1, align 8
  %59 = tail call i32 @exprLocation(ptr noundef nonnull %0) #11
  %60 = tail call i32 @parser_errposition(ptr noundef %58, i32 noundef %59) #11
  tail call void @errfinish(ptr noundef nonnull @.str.2, i32 noundef 786, ptr noundef nonnull @__func__.check_agg_arguments_walker) #11
  unreachable

61:                                               ; preds = %44
  %62 = tail call zeroext i1 @errstart_cold(i32 noundef 21, ptr noundef null) #12
  tail call void @llvm.assume(i1 %62)
  %63 = tail call i32 @errcode(i32 noundef 50364548) #11
  %64 = tail call i32 (ptr, ...) @errmsg(ptr noundef nonnull @.str.77) #11
  %65 = load ptr, ptr %1, align 8
  %66 = getelementptr inbounds nuw i8, ptr %0, i64 56
  %67 = load i32, ptr %66, align 8
  %68 = tail call i32 @parser_errposition(ptr noundef %65, i32 noundef %67) #11
  tail call void @errfinish(ptr noundef nonnull @.str.2, i32 noundef 792, ptr noundef nonnull @__func__.check_agg_arguments_walker) #11
  unreachable

.thread59:                                        ; preds = %40
  %69 = icmp eq i32 %.pre61, 67
  br i1 %69, label %70, label %.thread59.thread

70:                                               ; preds = %44, %.thread59
  %71 = add i32 %41, 1
  store i32 %71, ptr %42, align 8
  %72 = tail call zeroext i1 @query_tree_walker_impl(ptr noundef nonnull %0, ptr noundef nonnull @check_agg_arguments_walker, ptr noundef nonnull %1, i32 noundef 0) #11
  %73 = load i32, ptr %42, align 8
  %74 = add i32 %73, -1
  store i32 %74, ptr %42, align 8
  br label %76

.thread59.thread:                                 ; preds = %44, %49, %45, %.thread59
  %75 = tail call zeroext i1 @expression_tree_walker_impl(ptr noundef nonnull %0, ptr noundef nonnull @check_agg_arguments_walker, ptr noundef nonnull %1) #11
  br label %76

76:                                               ; preds = %6, %16, %13, %2, %.thread59.thread, %70
  %.0 = phi i1 [ %72, %70 ], [ %75, %.thread59.thread ], [ false, %2 ], [ false, %13 ], [ false, %16 ], [ false, %6 ]
  ret i1 %.0
}